; Function Attrs: nounwind uwtable
define internal ptr @binascii_unhexlify(ptr noundef %0, ptr noundef %1) #0 {
  %3 = alloca %struct.Py_buffer, align 8
  call void @llvm.lifetime.start.p0(i64 80, ptr nonnull %3) #5
  call void @llvm.memset.p0.i64(ptr noundef nonnull align 8 dereferenceable(80) %3, i8 0, i64 80, i1 false)
  %4 = call fastcc i32 @ascii_buffer_converter(ptr noundef %1, ptr noundef %3)
  %.not = icmp eq i32 %4, 0
  br i1 %.not, label %8, label %5

5:                                                ; preds = %2
  %.val = load ptr, ptr %3, align 8, !tbaa !12
  %6 = getelementptr inbounds nuw i8, ptr %3, i64 16
  %.val4 = load i64, ptr %6, align 8, !tbaa !18
  %7 = call fastcc ptr @binascii_a2b_hex_impl(ptr noundef %0, ptr readonly %.val, i64 %.val4)
  br label %8

8:                                                ; preds = %2, %5
  %.0 = phi ptr [ %7, %5 ], [ null, %2 ]
  %9 = getelementptr inbounds nuw i8, ptr %3, i64 8
  %10 = load ptr, ptr %9, align 8, !tbaa !21
  %.not3 = icmp eq ptr %10, null
  br i1 %.not3, label %12, label %11

11:                                               ; preds = %8
  call void @PyBuffer_Release(ptr noundef nonnull %3) #5
  br label %12

12:                                               ; preds = %11, %8
  call void @llvm.lifetime.end.p0(i64 80, ptr nonnull %3) #5
  ret ptr %.0
}